; Function Attrs: mustprogress nounwind uwtable
define hidden noundef ptr @_ZN16G1MonotonicArena7Segment14create_segmentEjjPS0_8MEMFLAGS(i32 noundef %0, i32 noundef %1, ptr noundef %2, i8 noundef zeroext %3) local_unnamed_addr #1 align 2 {
  %5 = zext i32 %0 to i64
  %6 = zext i32 %1 to i64
  %7 = mul nuw i64 %6, %5
  %8 = add nuw i64 %7, 128
  %9 = tail call noundef ptr @_Z12AllocateHeapm8MEMFLAGSN17AllocFailStrategy13AllocFailEnumE(i64 noundef %8, i8 noundef zeroext %3, i32 noundef 0) #8
  store i32 %0, ptr %9, align 8
  %10 = getelementptr inbounds i8, ptr %9, i64 4
  store i32 %1, ptr %10, align 4
  %11 = getelementptr inbounds i8, ptr %9, i64 8
  store volatile ptr %2, ptr %11, align 8
  %12 = getelementptr inbounds i8, ptr %9, i64 16
  store volatile i32 0, ptr %12, align 8
  %13 = getelementptr inbounds i8, ptr %9, i64 20
  store i8 %3, ptr %13, align 4
  %14 = getelementptr inbounds i8, ptr %9, i64 128
  %15 = getelementptr inbounds i8, ptr %9, i64 24
  store ptr %14, ptr %15, align 8
  ret ptr %9
}